; Function Attrs: mustprogress nounwind uwtable
define hidden noundef range(i64 0, 4294967296) i64 @_ZNK18G1CardSetAllocator15unused_mem_sizeEv(ptr noundef nonnull align 8 dereferenceable(640) %0) local_unnamed_addr #0 align 2 {
  %2 = getelementptr inbounds i8, ptr %0, i64 64
  %3 = load volatile i32, ptr %2, align 8
  %4 = getelementptr inbounds i8, ptr %0, i64 68
  %5 = load volatile i32, ptr %4, align 4
  %6 = sub i32 %3, %5
  %7 = getelementptr inbounds i8, ptr %0, i64 72
  %8 = tail call noundef i64 @_ZNK17FreeListAllocator10free_countEv(ptr noundef nonnull align 8 dereferenceable(568) %7) #4
  %9 = trunc i64 %8 to i32
  %10 = add i32 %6, %9
  %11 = tail call noundef i32 @_ZNK16G1MonotonicArena9slot_sizeEv(ptr noundef nonnull align 8 dereferenceable(72) %0) #4
  %12 = mul i32 %10, %11
  %13 = zext i32 %12 to i64
  ret i64 %13
}